target datalayout = "e-m:e-p270:32:32-p271:32:32-p272:64:64-i64:64-i128:128-f80:128-n8:16:32:64-S128"
target triple = "x86_64-pc-linux-gnu"

%struct.psa_crypto_local_output_s = type { ptr, ptr, i64 }
%struct.psa_sign_hash_interruptible_operation_s = type { i32, %union.psa_driver_sign_hash_interruptible_context_t, i8, i32 }
%union.psa_driver_sign_hash_interruptible_context_t = type { i32 }

; Function Attrs: nounwind uwtable
define hidden i32 @mbedtls_psa_sign_hash_abort(ptr noundef %0) #0 {
  %2 = alloca ptr, align 8
  store ptr %0, ptr %2, align 8, !tbaa !21
  ret i32 -134
}

; Function Attrs: nounwind uwtable
define internal i32 @psa_crypto_copy_output(ptr noundef %0, i64 noundef %1, ptr noundef %2, i64 noundef %3) #0 {
  %5 = alloca i32, align 4
  %6 = alloca ptr, align 8
  %7 = alloca i64, align 8
  %8 = alloca ptr, align 8
  %9 = alloca i64, align 8
  store ptr %0, ptr %6, align 8, !tbaa !29
  store i64 %1, ptr %7, align 8, !tbaa !20
  store ptr %2, ptr %8, align 8, !tbaa !29
  store i64 %3, ptr %9, align 8, !tbaa !20
  %10 = load i64, ptr %9, align 8, !tbaa !20
  %11 = load i64, ptr %7, align 8, !tbaa !20
  %12 = icmp ult i64 %10, %11
  br i1 %12, label %13, label %14

13:                                               ; preds = %4
  store i32 -138, ptr %5, align 4
  br label %22

14:                                               ; preds = %4
  %15 = load i64, ptr %7, align 8, !tbaa !20
  %16 = icmp ugt i64 %15, 0
  br i1 %16, label %17, label %21

17:                                               ; preds = %14
  %18 = load ptr, ptr %8, align 8, !tbaa !29
  %19 = load ptr, ptr %6, align 8, !tbaa !29
  %20 = load i64, ptr %7, align 8, !tbaa !20
  call void @llvm.memcpy.p0.p0.i64(ptr align 1 %18, ptr align 1 %19, i64 %20, i1 false)
  br label %21

21:                                               ; preds = %17, %14
  store i32 0, ptr %5, align 4
  br label %22

22:                                               ; preds = %21, %13
  %23 = load i32, ptr %5, align 4
  ret i32 %23
}

; Function Attrs: inlinehint nounwind uwtable
define internal i32 @psa_driver_wrapper_sign_hash_abort(ptr noundef %0) #6 {
  %2 = alloca i32, align 4
  %3 = alloca ptr, align 8
  store ptr %0, ptr %3, align 8, !tbaa !80
  %4 = load ptr, ptr %3, align 8, !tbaa !80
  %5 = getelementptr inbounds nuw %struct.psa_sign_hash_interruptible_operation_s, ptr %4, i32 0, i32 0
  %6 = load i32, ptr %5, align 4, !tbaa !88
  switch i32 %6, label %11 [
    i32 1, label %7
  ]

7:                                                ; preds = %1
  %8 = load ptr, ptr %3, align 8, !tbaa !80
  %9 = getelementptr inbounds nuw %struct.psa_sign_hash_interruptible_operation_s, ptr %8, i32 0, i32 1
  %10 = call i32 @mbedtls_psa_sign_hash_abort(ptr noundef %9)
  store i32 %10, ptr %2, align 4
  br label %12

11:                                               ; preds = %1
  store i32 -135, ptr %2, align 4
  br label %12

12:                                               ; preds = %11, %7
  %13 = load i32, ptr %2, align 4
  ret i32 %13
}

; Function Attrs: nounwind uwtable
define hidden i32 @mbedtls_psa_sign_hash_get_num_ops(ptr noundef %0) #0 {
  %2 = alloca ptr, align 8
  store ptr %0, ptr %2, align 8, !tbaa !21
  ret i32 0
}

; Function Attrs: nounwind uwtable
define hidden i32 @mbedtls_psa_sign_hash_complete(ptr noundef %0, ptr noundef %1, i64 noundef %2, ptr noundef %3) #0 {
  %5 = alloca ptr, align 8
  %6 = alloca ptr, align 8
  %7 = alloca i64, align 8
  %8 = alloca ptr, align 8
  store ptr %0, ptr %5, align 8, !tbaa !21
  store ptr %1, ptr %6, align 8, !tbaa !29
  store i64 %2, ptr %7, align 8, !tbaa !20
  store ptr %3, ptr %8, align 8, !tbaa !32
  ret i32 -134
}

; Function Attrs: nounwind uwtable
define hidden i32 @psa_crypto_local_output_free(ptr noundef %0) #0 {
  %2 = alloca i32, align 4
  %3 = alloca ptr, align 8
  %4 = alloca i32, align 4
  %5 = alloca i32, align 4
  store ptr %0, ptr %3, align 8, !tbaa !46
  call void @llvm.lifetime.start.p0(i64 4, ptr %4) #8
  %6 = load ptr, ptr %3, align 8, !tbaa !46
  %7 = getelementptr inbounds nuw %struct.psa_crypto_local_output_s, ptr %6, i32 0, i32 1
  %8 = load ptr, ptr %7, align 8, !tbaa !44
  %9 = icmp eq ptr %8, null
  br i1 %9, label %10, label %13

10:                                               ; preds = %1
  %11 = load ptr, ptr %3, align 8, !tbaa !46
  %12 = getelementptr inbounds nuw %struct.psa_crypto_local_output_s, ptr %11, i32 0, i32 2
  store i64 0, ptr %12, align 8, !tbaa !49
  store i32 0, ptr %2, align 4
  store i32 1, ptr %5, align 4
  br label %45

13:                                               ; preds = %1
  %14 = load ptr, ptr %3, align 8, !tbaa !46
  %15 = getelementptr inbounds nuw %struct.psa_crypto_local_output_s, ptr %14, i32 0, i32 0
  %16 = load ptr, ptr %15, align 8, !tbaa !50
  %17 = icmp eq ptr %16, null
  br i1 %17, label %18, label %19

18:                                               ; preds = %13
  store i32 -151, ptr %2, align 4
  store i32 1, ptr %5, align 4
  br label %45

19:                                               ; preds = %13
  %20 = load ptr, ptr %3, align 8, !tbaa !46
  %21 = getelementptr inbounds nuw %struct.psa_crypto_local_output_s, ptr %20, i32 0, i32 1
  %22 = load ptr, ptr %21, align 8, !tbaa !44
  %23 = load ptr, ptr %3, align 8, !tbaa !46
  %24 = getelementptr inbounds nuw %struct.psa_crypto_local_output_s, ptr %23, i32 0, i32 2
  %25 = load i64, ptr %24, align 8, !tbaa !49
  %26 = load ptr, ptr %3, align 8, !tbaa !46
  %27 = getelementptr inbounds nuw %struct.psa_crypto_local_output_s, ptr %26, i32 0, i32 0
  %28 = load ptr, ptr %27, align 8, !tbaa !50
  %29 = load ptr, ptr %3, align 8, !tbaa !46
  %30 = getelementptr inbounds nuw %struct.psa_crypto_local_output_s, ptr %29, i32 0, i32 2
  %31 = load i64, ptr %30, align 8, !tbaa !49
  %32 = call i32 @psa_crypto_copy_output(ptr noundef %22, i64 noundef %25, ptr noundef %28, i64 noundef %31)
  store i32 %32, ptr %4, align 4, !tbaa !3
  %33 = load i32, ptr %4, align 4, !tbaa !3
  %34 = icmp ne i32 %33, 0
  br i1 %34, label %35, label %37

35:                                               ; preds = %19
  %36 = load i32, ptr %4, align 4, !tbaa !3
  store i32 %36, ptr %2, align 4
  store i32 1, ptr %5, align 4
  br label %45

37:                                               ; preds = %19
  %38 = load ptr, ptr %3, align 8, !tbaa !46
  %39 = getelementptr inbounds nuw %struct.psa_crypto_local_output_s, ptr %38, i32 0, i32 1
  %40 = load ptr, ptr %39, align 8, !tbaa !44
  call void @free(ptr noundef %40) #8
  %41 = load ptr, ptr %3, align 8, !tbaa !46
  %42 = getelementptr inbounds nuw %struct.psa_crypto_local_output_s, ptr %41, i32 0, i32 1
  store ptr null, ptr %42, align 8, !tbaa !44
  %43 = load ptr, ptr %3, align 8, !tbaa !46
  %44 = getelementptr inbounds nuw %struct.psa_crypto_local_output_s, ptr %43, i32 0, i32 2
  store i64 0, ptr %44, align 8, !tbaa !49
  store i32 0, ptr %2, align 4
  store i32 1, ptr %5, align 4
  br label %45

45:                                               ; preds = %37, %35, %18, %10
  call void @llvm.lifetime.end.p0(i64 4, ptr %4) #8
  %46 = load i32, ptr %2, align 4
  ret i32 %46
}

; Function Attrs: nounwind uwtable
define internal i32 @psa_sign_hash_abort_internal(ptr noundef %0) #0 {
  %2 = alloca i32, align 4
  %3 = alloca ptr, align 8
  %4 = alloca i32, align 4
  store ptr %0, ptr %3, align 8, !tbaa !80
  %5 = load ptr, ptr %3, align 8, !tbaa !80
  %6 = getelementptr inbounds nuw %struct.psa_sign_hash_interruptible_operation_s, ptr %5, i32 0, i32 0
  %7 = load i32, ptr %6, align 4, !tbaa !88
  %8 = icmp eq i32 %7, 0
  br i1 %8, label %9, label %10

9:                                                ; preds = %1
  store i32 0, ptr %2, align 4
  br label %16

10:                                               ; preds = %1
  call void @llvm.lifetime.start.p0(i64 4, ptr %4) #8
  store i32 -151, ptr %4, align 4, !tbaa !3
  %11 = load ptr, ptr %3, align 8, !tbaa !80
  %12 = call i32 @psa_driver_wrapper_sign_hash_abort(ptr noundef %11)
  store i32 %12, ptr %4, align 4, !tbaa !3
  %13 = load ptr, ptr %3, align 8, !tbaa !80
  %14 = getelementptr inbounds nuw %struct.psa_sign_hash_interruptible_operation_s, ptr %13, i32 0, i32 0
  store i32 0, ptr %14, align 4, !tbaa !88
  %15 = load i32, ptr %4, align 4, !tbaa !3
  store i32 %15, ptr %2, align 4
  call void @llvm.lifetime.end.p0(i64 4, ptr %4) #8
  br label %16

16:                                               ; preds = %10, %9
  %17 = load i32, ptr %2, align 4
  ret i32 %17
}

; Function Attrs: nounwind uwtable
define internal void @psa_wipe_tag_output_buffer(ptr noundef %0, i32 noundef %1, i64 noundef %2, i64 noundef %3) #0 {
  %5 = alloca ptr, align 8
  %6 = alloca i32, align 4
  %7 = alloca i64, align 8
  %8 = alloca i64, align 8
  %9 = alloca i64, align 8
  %10 = alloca i32, align 4
  store ptr %0, ptr %5, align 8, !tbaa !29
  store i32 %1, ptr %6, align 4, !tbaa !3
  store i64 %2, ptr %7, align 8, !tbaa !20
  store i64 %3, ptr %8, align 8, !tbaa !20
  call void @llvm.lifetime.start.p0(i64 8, ptr %9) #8
  store i64 0, ptr %9, align 8, !tbaa !20
  %11 = load i64, ptr %7, align 8, !tbaa !20
  %12 = icmp eq i64 %11, 0
  br i1 %12, label %13, label %14

13:                                               ; preds = %4
  store i32 1, ptr %10, align 4
  br label %26

14:                                               ; preds = %4
  %15 = load i32, ptr %6, align 4, !tbaa !3
  %16 = icmp eq i32 %15, 0
  br i1 %16, label %17, label %19

17:                                               ; preds = %14
  %18 = load i64, ptr %8, align 8, !tbaa !20
  store i64 %18, ptr %9, align 8, !tbaa !20
  br label %19

19:                                               ; preds = %17, %14
  %20 = load ptr, ptr %5, align 8, !tbaa !29
  %21 = load i64, ptr %9, align 8, !tbaa !20
  %22 = getelementptr inbounds nuw i8, ptr %20, i64 %21
  %23 = load i64, ptr %7, align 8, !tbaa !20
  %24 = load i64, ptr %9, align 8, !tbaa !20
  %25 = sub i64 %23, %24
  call void @llvm.memset.p0.i64(ptr align 1 %22, i8 33, i64 %25, i1 false)
  store i32 0, ptr %10, align 4
  br label %26

26:                                               ; preds = %19, %13
  call void @llvm.lifetime.end.p0(i64 8, ptr %9) #8
  %27 = load i32, ptr %10, align 4
  switch i32 %27, label %29 [
    i32 0, label %28
    i32 1, label %28
  ]

28:                                               ; preds = %26, %26
  ret void

29:                                               ; preds = %26
  unreachable
}

; Function Attrs: inlinehint nounwind uwtable
define internal i32 @psa_driver_wrapper_sign_hash_get_num_ops(ptr noundef %0) #6 {
  %2 = alloca i32, align 4
  %3 = alloca ptr, align 8
  store ptr %0, ptr %3, align 8, !tbaa !80
  %4 = load ptr, ptr %3, align 8, !tbaa !80
  %5 = getelementptr inbounds nuw %struct.psa_sign_hash_interruptible_operation_s, ptr %4, i32 0, i32 0
  %6 = load i32, ptr %5, align 4, !tbaa !88
  switch i32 %6, label %12 [
    i32 0, label %7
    i32 1, label %8
  ]

7:                                                ; preds = %1
  store i32 0, ptr %2, align 4
  br label %13

8:                                                ; preds = %1
  %9 = load ptr, ptr %3, align 8, !tbaa !80
  %10 = getelementptr inbounds nuw %struct.psa_sign_hash_interruptible_operation_s, ptr %9, i32 0, i32 1
  %11 = call i32 @mbedtls_psa_sign_hash_get_num_ops(ptr noundef %10)
  store i32 %11, ptr %2, align 4
  br label %13

12:                                               ; preds = %1
  store i32 0, ptr %2, align 4
  br label %13

13:                                               ; preds = %12, %8, %7
  %14 = load i32, ptr %2, align 4
  ret i32 %14
}

; Function Attrs: inlinehint nounwind uwtable
define internal i32 @psa_driver_wrapper_sign_hash_complete(ptr noundef %0, ptr noundef %1, i64 noundef %2, ptr noundef %3) #6 {
  %5 = alloca i32, align 4
  %6 = alloca ptr, align 8
  %7 = alloca ptr, align 8
  %8 = alloca i64, align 8
  %9 = alloca ptr, align 8
  store ptr %0, ptr %6, align 8, !tbaa !80
  store ptr %1, ptr %7, align 8, !tbaa !29
  store i64 %2, ptr %8, align 8, !tbaa !20
  store ptr %3, ptr %9, align 8, !tbaa !32
  %10 = load ptr, ptr %6, align 8, !tbaa !80
  %11 = getelementptr inbounds nuw %struct.psa_sign_hash_interruptible_operation_s, ptr %10, i32 0, i32 0
  %12 = load i32, ptr %11, align 4, !tbaa !88
  switch i32 %12, label %20 [
    i32 1, label %13
  ]

13:                                               ; preds = %4
  %14 = load ptr, ptr %6, align 8, !tbaa !80
  %15 = getelementptr inbounds nuw %struct.psa_sign_hash_interruptible_operation_s, ptr %14, i32 0, i32 1
  %16 = load ptr, ptr %7, align 8, !tbaa !29
  %17 = load i64, ptr %8, align 8, !tbaa !20
  %18 = load ptr, ptr %9, align 8, !tbaa !32
  %19 = call i32 @mbedtls_psa_sign_hash_complete(ptr noundef %15, ptr noundef %16, i64 noundef %17, ptr noundef %18)
  store i32 %19, ptr %5, align 4
  br label %21

20:                                               ; preds = %4
  store i32 -135, ptr %5, align 4
  br label %21

21:                                               ; preds = %20, %13
  %22 = load i32, ptr %5, align 4
  ret i32 %22
}

; Function Attrs: nounwind uwtable
define hidden i32 @psa_crypto_local_output_alloc(ptr noundef %0, i64 noundef %1, ptr noundef %2) #0 {
  %4 = alloca i32, align 4
  %5 = alloca ptr, align 8
  %6 = alloca i64, align 8
  %7 = alloca ptr, align 8
  %8 = alloca %struct.psa_crypto_local_output_s, align 8
  store ptr %0, ptr %5, align 8, !tbaa !29
  store i64 %1, ptr %6, align 8, !tbaa !20
  store ptr %2, ptr %7, align 8, !tbaa !46
  %9 = load ptr, ptr %7, align 8, !tbaa !46
  call void @llvm.memset.p0.i64(ptr align 8 %8, i8 0, i64 24, i1 false)
  call void @llvm.memcpy.p0.p0.i64(ptr align 8 %9, ptr align 8 %8, i64 24, i1 false), !tbaa.struct !48
  %10 = load i64, ptr %6, align 8, !tbaa !20
  %11 = icmp eq i64 %10, 0
  br i1 %11, label %12, label %13

12:                                               ; preds = %3
  store i32 0, ptr %4, align 4
  br label %30

13:                                               ; preds = %3
  %14 = load i64, ptr %6, align 8, !tbaa !20
  %15 = call noalias ptr @calloc(i64 noundef %14, i64 noundef 1) #9
  %16 = load ptr, ptr %7, align 8, !tbaa !46
  %17 = getelementptr inbounds nuw %struct.psa_crypto_local_output_s, ptr %16, i32 0, i32 1
  store ptr %15, ptr %17, align 8, !tbaa !44
  %18 = load ptr, ptr %7, align 8, !tbaa !46
  %19 = getelementptr inbounds nuw %struct.psa_crypto_local_output_s, ptr %18, i32 0, i32 1
  %20 = load ptr, ptr %19, align 8, !tbaa !44
  %21 = icmp eq ptr %20, null
  br i1 %21, label %22, label %23

22:                                               ; preds = %13
  store i32 -141, ptr %4, align 4
  br label %30

23:                                               ; preds = %13
  %24 = load i64, ptr %6, align 8, !tbaa !20
  %25 = load ptr, ptr %7, align 8, !tbaa !46
  %26 = getelementptr inbounds nuw %struct.psa_crypto_local_output_s, ptr %25, i32 0, i32 2
  store i64 %24, ptr %26, align 8, !tbaa !49
  %27 = load ptr, ptr %5, align 8, !tbaa !29
  %28 = load ptr, ptr %7, align 8, !tbaa !46
  %29 = getelementptr inbounds nuw %struct.psa_crypto_local_output_s, ptr %28, i32 0, i32 0
  store ptr %27, ptr %29, align 8, !tbaa !50
  store i32 0, ptr %4, align 4
  br label %30

30:                                               ; preds = %23, %22, %12
  %31 = load i32, ptr %4, align 4
  ret i32 %31
}

; Function Attrs: nounwind uwtable
define hidden i32 @psa_sign_hash_complete(ptr noundef %0, ptr noundef %1, i64 noundef %2, ptr noundef %3) #0 {
  %5 = alloca ptr, align 8
  %6 = alloca ptr, align 8
  %7 = alloca i64, align 8
  %8 = alloca ptr, align 8
  %9 = alloca i32, align 4
  %10 = alloca %struct.psa_crypto_local_output_s, align 8
  %11 = alloca ptr, align 8
  %12 = alloca i32, align 4
  store ptr %0, ptr %5, align 8, !tbaa !80
  store ptr %1, ptr %6, align 8, !tbaa !29
  store i64 %2, ptr %7, align 8, !tbaa !20
  store ptr %3, ptr %8, align 8, !tbaa !32
  call void @llvm.lifetime.start.p0(i64 4, ptr %9) #8
  store i32 -151, ptr %9, align 4, !tbaa !3
  call void @llvm.lifetime.start.p0(i64 24, ptr %10) #8
  call void @llvm.memset.p0.i64(ptr align 8 %10, i8 0, i64 24, i1 false)
  call void @llvm.lifetime.start.p0(i64 8, ptr %11) #8
  store ptr null, ptr %11, align 8, !tbaa !29
  %13 = load ptr, ptr %8, align 8, !tbaa !32
  store i64 0, ptr %13, align 8, !tbaa !20
  %14 = load ptr, ptr %5, align 8, !tbaa !80
  %15 = getelementptr inbounds nuw %struct.psa_sign_hash_interruptible_operation_s, ptr %14, i32 0, i32 0
  %16 = load i32, ptr %15, align 4, !tbaa !88
  %17 = icmp eq i32 %16, 0
  br i1 %17, label %25, label %18

18:                                               ; preds = %4
  %19 = load ptr, ptr %5, align 8, !tbaa !80
  %20 = getelementptr inbounds nuw %struct.psa_sign_hash_interruptible_operation_s, ptr %19, i32 0, i32 2
  %21 = load i8, ptr %20, align 4
  %22 = and i8 %21, 1
  %23 = zext i8 %22 to i32
  %24 = icmp ne i32 %23, 0
  br i1 %24, label %25, label %26

25:                                               ; preds = %18, %4
  store i32 -137, ptr %9, align 4, !tbaa !3
  br label %49

26:                                               ; preds = %18
  %27 = load i64, ptr %7, align 8, !tbaa !20
  %28 = icmp eq i64 %27, 0
  br i1 %28, label %29, label %30

29:                                               ; preds = %26
  store i32 -138, ptr %9, align 4, !tbaa !3
  br label %49

30:                                               ; preds = %26
  %31 = load ptr, ptr %6, align 8, !tbaa !29
  %32 = load i64, ptr %7, align 8, !tbaa !20
  %33 = call i32 @psa_crypto_local_output_alloc(ptr noundef %31, i64 noundef %32, ptr noundef %10)
  store i32 %33, ptr %9, align 4, !tbaa !3
  %34 = load i32, ptr %9, align 4, !tbaa !3
  %35 = icmp ne i32 %34, 0
  br i1 %35, label %36, label %37

36:                                               ; preds = %30
  br label %49

37:                                               ; preds = %30
  %38 = getelementptr inbounds nuw %struct.psa_crypto_local_output_s, ptr %10, i32 0, i32 1
  %39 = load ptr, ptr %38, align 8, !tbaa !44
  store ptr %39, ptr %11, align 8, !tbaa !29
  %40 = load ptr, ptr %5, align 8, !tbaa !80
  %41 = load ptr, ptr %11, align 8, !tbaa !29
  %42 = load i64, ptr %7, align 8, !tbaa !20
  %43 = load ptr, ptr %8, align 8, !tbaa !32
  %44 = call i32 @psa_driver_wrapper_sign_hash_complete(ptr noundef %40, ptr noundef %41, i64 noundef %42, ptr noundef %43)
  store i32 %44, ptr %9, align 4, !tbaa !3
  %45 = load ptr, ptr %5, align 8, !tbaa !80
  %46 = call i32 @psa_driver_wrapper_sign_hash_get_num_ops(ptr noundef %45)
  %47 = load ptr, ptr %5, align 8, !tbaa !80
  %48 = getelementptr inbounds nuw %struct.psa_sign_hash_interruptible_operation_s, ptr %47, i32 0, i32 3
  store i32 %46, ptr %48, align 4, !tbaa !82
  br label %49

49:                                               ; preds = %37, %36, %29, %25
  %50 = load ptr, ptr %11, align 8, !tbaa !29
  %51 = icmp ne ptr %50, null
  br i1 %51, label %52, label %58

52:                                               ; preds = %49
  %53 = load ptr, ptr %11, align 8, !tbaa !29
  %54 = load i32, ptr %9, align 4, !tbaa !3
  %55 = load i64, ptr %7, align 8, !tbaa !20
  %56 = load ptr, ptr %8, align 8, !tbaa !32
  %57 = load i64, ptr %56, align 8, !tbaa !20
  call void @psa_wipe_tag_output_buffer(ptr noundef %53, i32 noundef %54, i64 noundef %55, i64 noundef %57)
  br label %58

58:                                               ; preds = %52, %49
  %59 = load i32, ptr %9, align 4, !tbaa !3
  %60 = icmp ne i32 %59, -248
  br i1 %60, label %61, label %73

61:                                               ; preds = %58
  %62 = load i32, ptr %9, align 4, !tbaa !3
  %63 = icmp ne i32 %62, 0
  br i1 %63, label %64, label %70

64:                                               ; preds = %61
  %65 = load ptr, ptr %5, align 8, !tbaa !80
  %66 = getelementptr inbounds nuw %struct.psa_sign_hash_interruptible_operation_s, ptr %65, i32 0, i32 2
  %67 = load i8, ptr %66, align 4
  %68 = and i8 %67, -2
  %69 = or i8 %68, 1
  store i8 %69, ptr %66, align 4
  br label %70

70:                                               ; preds = %64, %61
  %71 = load ptr, ptr %5, align 8, !tbaa !80
  %72 = call i32 @psa_sign_hash_abort_internal(ptr noundef %71)
  br label %73

73:                                               ; preds = %70, %58
  store ptr null, ptr %11, align 8, !tbaa !29
  br label %74

74:                                               ; preds = %73
  call void @llvm.lifetime.start.p0(i64 4, ptr %12) #8
  %75 = call i32 @psa_crypto_local_output_free(ptr noundef %10)
  store i32 %75, ptr %12, align 4, !tbaa !3
  %76 = load i32, ptr %12, align 4, !tbaa !3
  %77 = icmp ne i32 %76, 0
  br i1 %77, label %78, label %80

78:                                               ; preds = %74
  %79 = load i32, ptr %12, align 4, !tbaa !3
  store i32 %79, ptr %9, align 4, !tbaa !3
  br label %80

80:                                               ; preds = %78, %74
  call void @llvm.lifetime.end.p0(i64 4, ptr %12) #8
  br label %81

81:                                               ; preds = %80
  br label %82

82:                                               ; preds = %81
  %83 = load i32, ptr %9, align 4, !tbaa !3
  call void @llvm.lifetime.end.p0(i64 8, ptr %11) #8
  call void @llvm.lifetime.end.p0(i64 24, ptr %10) #8
  call void @llvm.lifetime.end.p0(i64 4, ptr %9) #8
  ret i32 %83
}