; Function Attrs: mustprogress nofree norecurse nosync nounwind willreturn memory(argmem: readwrite) uwtable
define hidden range(i32 -151, -133) i32 @psa_sign_hash_complete(ptr noundef captures(none) %0, ptr noundef writeonly %1, i64 noundef %2, ptr noundef writeonly captures(none) initializes((0, 8)) %3) local_unnamed_addr #10 {
  store i64 0, ptr %3, align 8, !tbaa !25
  %5 = load i32, ptr %0, align 4, !tbaa !62
  %6 = icmp eq i32 %5, 0
  %.phi.trans.insert = getelementptr inbounds nuw i8, ptr %0, i64 8
  %.pre = load i8, ptr %.phi.trans.insert, align 4
  br i1 %6, label %psa_sign_hash_abort_internal.exit.thread, label %7

7:                                                ; preds = %4
  %8 = and i8 %.pre, 1
  %.not = icmp eq i8 %8, 0
  br i1 %.not, label %9, label %psa_sign_hash_abort_internal.exit.thread75

9:                                                ; preds = %7
  %10 = icmp eq i64 %2, 0
  br i1 %10, label %psa_sign_hash_abort_internal.exit.thread75, label %15

psa_sign_hash_abort_internal.exit.thread:         ; preds = %4
  %11 = getelementptr inbounds nuw i8, ptr %0, i64 8
  %12 = or i8 %.pre, 1
  store i8 %12, ptr %11, align 4
  br label %psa_crypto_local_output_free.exit

psa_sign_hash_abort_internal.exit.thread75:       ; preds = %7, %9
  %.056.ph.ph = phi i32 [ -138, %9 ], [ -137, %7 ]
  %13 = getelementptr inbounds nuw i8, ptr %0, i64 8
  %14 = or i8 %.pre, 1
  store i8 %14, ptr %13, align 4
  store i32 0, ptr %0, align 4, !tbaa !62
  br label %psa_crypto_local_output_free.exit

15:                                               ; preds = %9
  %16 = getelementptr inbounds nuw i8, ptr %0, i64 12
  store i32 0, ptr %16, align 4, !tbaa !58
  %17 = getelementptr inbounds nuw i8, ptr %0, i64 8
  %18 = or disjoint i8 %.pre, 1
  store i8 %18, ptr %17, align 4
  store i32 0, ptr %0, align 4, !tbaa !62
  %19 = icmp eq ptr %1, null
  br i1 %19, label %psa_crypto_local_output_free.exit, label %psa_crypto_copy_output.exit.i

psa_crypto_copy_output.exit.i:                    ; preds = %15
  %cond.i = icmp eq i32 %5, 1
  %spec.select.i = select i1 %cond.i, i32 -134, i32 -135
  tail call void @llvm.memset.p0.i64(ptr nonnull align 1 %1, i8 33, i64 %2, i1 false)
  br label %psa_crypto_local_output_free.exit

psa_crypto_local_output_free.exit:                ; preds = %psa_sign_hash_abort_internal.exit.thread75, %psa_sign_hash_abort_internal.exit.thread, %psa_crypto_copy_output.exit.i, %15
  %20 = phi i32 [ -151, %15 ], [ %spec.select.i, %psa_crypto_copy_output.exit.i ], [ -137, %psa_sign_hash_abort_internal.exit.thread ], [ %.056.ph.ph, %psa_sign_hash_abort_internal.exit.thread75 ]
  ret i32 %20
}